; Function Attrs: mustprogress nofree norecurse nounwind willreturn memory(argmem: readwrite) uwtable
define void @_ZN7rocksdb18GenericRateLimiter23SetBytesPerSecondLockedEl(ptr nocapture noundef nonnull align 8 dereferenceable(608) %this, i64 noundef %bytes_per_second) local_unnamed_addr #2 align 2 personality ptr @__gxx_personality_v0 {
entry:
  %rate_bytes_per_sec_ = getelementptr inbounds i8, ptr %this, i64 64
  store atomic i64 %bytes_per_second, ptr %rate_bytes_per_sec_ monotonic, align 8
  %refill_period_us_.i = getelementptr inbounds i8, ptr %this, i64 56
  %0 = load atomic i64, ptr %refill_period_us_.i monotonic, align 8
  %div.i = sdiv i64 9223372036854775807, %bytes_per_second
  %cmp.i = icmp slt i64 %div.i, %0
  %mul.i = mul nsw i64 %0, %bytes_per_second
  %1 = sdiv i64 %mul.i, 1000000
  %retval.0.i = select i1 %cmp.i, i64 9223372036854, i64 %1
  %refill_bytes_per_period_ = getelementptr inbounds i8, ptr %this, i64 72
  store atomic i64 %retval.0.i, ptr %refill_bytes_per_period_ monotonic, align 8
  ret void
}